; Function Attrs: mustprogress nounwind uwtable
define hidden void @_ZN10JavaThread25deoptimize_marked_methodsEv(ptr noundef nonnull align 8 dereferenceable(1800) %0) local_unnamed_addr #0 align 2 {
  %2 = alloca %class.frame, align 8
  %3 = alloca %class.StackFrameStream, align 8
  %4 = getelementptr inbounds i8, ptr %0, i64 928
  %5 = load volatile ptr, ptr %4, align 8
  %.not = icmp eq ptr %5, null
  br i1 %.not, label %_ZN16StackFrameStream7is_doneEv.exit.thread, label %6

6:                                                ; preds = %1
  call void @_ZN16StackFrameStreamC1EP10JavaThreadbbb(ptr noundef nonnull align 8 dereferenceable(5041) %3, ptr noundef nonnull %0, i1 noundef zeroext false, i1 noundef zeroext true, i1 noundef zeroext false) #21
  %7 = getelementptr inbounds i8, ptr %3, i64 5040
  %8 = load i8, ptr %7, align 8
  %9 = trunc i8 %8 to i1
  br i1 %9, label %_ZN16StackFrameStream7is_doneEv.exit.thread, label %.lr.ph

.lr.ph:                                           ; preds = %6
  %10 = getelementptr inbounds i8, ptr %3, i64 8
  %11 = getelementptr inbounds i8, ptr %3, i64 16
  %12 = getelementptr inbounds i8, ptr %3, i64 56
  %13 = getelementptr inbounds i8, ptr %3, i64 5037
  %14 = getelementptr inbounds i8, ptr %3, i64 5024
  %15 = getelementptr inbounds i8, ptr %3, i64 5016
  br label %16

16:                                               ; preds = %.lr.ph, %_ZN16StackFrameStream4nextEv.exit
  %17 = load ptr, ptr %10, align 8
  %18 = load ptr, ptr @_ZN12StubRoutines25_call_stub_return_addressE, align 8
  %19 = icmp eq ptr %18, %17
  br i1 %19, label %20, label %22

20:                                               ; preds = %16
  %21 = call noundef zeroext i1 @_ZNK5frame20entry_frame_is_firstEv(ptr noundef nonnull align 8 dereferenceable(56) %3) #21
  br i1 %21, label %30, label %22

22:                                               ; preds = %20, %16
  %23 = load ptr, ptr %11, align 8
  %.not.i.i.i = icmp eq ptr %23, null
  br i1 %.not.i.i.i, label %30, label %_ZNK5frame20is_upcall_stub_frameEv.exit.i.i

_ZNK5frame20is_upcall_stub_frameEv.exit.i.i:      ; preds = %22
  %24 = getelementptr inbounds i8, ptr %23, i64 52
  %25 = load i8, ptr %24, align 4
  %26 = icmp eq i8 %25, 11
  br i1 %26, label %27, label %30

27:                                               ; preds = %_ZNK5frame20is_upcall_stub_frameEv.exit.i.i
  %28 = call noundef zeroext i1 @_ZNK5frame26upcall_stub_frame_is_firstEv(ptr noundef nonnull align 8 dereferenceable(56) %3) #21
  %29 = zext i1 %28 to i8
  br label %30

30:                                               ; preds = %27, %_ZNK5frame20is_upcall_stub_frameEv.exit.i.i, %22, %20
  %31 = phi i8 [ 1, %20 ], [ 0, %_ZNK5frame20is_upcall_stub_frameEv.exit.i.i ], [ %29, %27 ], [ 0, %22 ]
  store i8 %31, ptr %7, align 8
  %32 = call noundef zeroext i1 @_ZNK5frame21should_be_deoptimizedEv(ptr noundef nonnull align 8 dereferenceable(56) %3) #21
  br i1 %32, label %33, label %34

33:                                               ; preds = %30
  call void @_ZN14Deoptimization10deoptimizeEP10JavaThread5frameNS_11DeoptReasonE(ptr noundef nonnull %0, ptr noundef nonnull byval(%class.frame) align 8 %3, i32 noundef 14) #21
  br label %34

34:                                               ; preds = %30, %33
  call void @llvm.lifetime.start.p0(i64 56, ptr nonnull %2)
  %35 = load i8, ptr %7, align 8
  %36 = trunc i8 %35 to i1
  br i1 %36, label %_ZN16StackFrameStream4nextEv.exit, label %37

37:                                               ; preds = %34
  call void @_ZNK5frame10sender_rawEP11RegisterMap(ptr dead_on_unwind nonnull writable sret(%class.frame) align 8 %2, ptr noundef nonnull align 8 dereferenceable(56) %3, ptr noundef nonnull %12)
  %38 = load i8, ptr %13, align 1, !noalias !31
  %39 = trunc i8 %38 to i1
  br i1 %39, label %40, label %_ZNK5frame6senderEP11RegisterMap.exit.i

40:                                               ; preds = %37
  %41 = load ptr, ptr %14, align 8, !noalias !31
  %42 = icmp eq ptr %41, null
  br i1 %42, label %_ZNK11RegisterMap7in_contEv.exit.thread.i.i, label %_ZNK11RegisterMap7in_contEv.exit.i.i

_ZNK11RegisterMap7in_contEv.exit.i.i:             ; preds = %40
  %43 = load ptr, ptr %41, align 8
  %.not.i.i = icmp eq ptr %43, null
  br i1 %.not.i.i, label %_ZNK11RegisterMap7in_contEv.exit.thread.i.i, label %_ZNK5frame6senderEP11RegisterMap.exit.i

_ZNK11RegisterMap7in_contEv.exit.thread.i.i:      ; preds = %_ZNK11RegisterMap7in_contEv.exit.i.i, %40
  %44 = load ptr, ptr %15, align 8, !noalias !31
  call void @_ZN17StackWatermarkSet12on_iterationEP10JavaThreadRK5frame(ptr noundef %44, ptr noundef nonnull align 8 dereferenceable(56) %2) #21
  br label %_ZNK5frame6senderEP11RegisterMap.exit.i

_ZNK5frame6senderEP11RegisterMap.exit.i:          ; preds = %_ZNK11RegisterMap7in_contEv.exit.thread.i.i, %_ZNK11RegisterMap7in_contEv.exit.i.i, %37
  call void @llvm.memcpy.p0.p0.i64(ptr noundef nonnull align 8 dereferenceable(56) %3, ptr noundef nonnull align 8 dereferenceable(56) %2, i64 56, i1 false)
  %.pre = load i8, ptr %7, align 8
  br label %_ZN16StackFrameStream4nextEv.exit

_ZN16StackFrameStream4nextEv.exit:                ; preds = %34, %_ZNK5frame6senderEP11RegisterMap.exit.i
  %45 = phi i8 [ %35, %34 ], [ %.pre, %_ZNK5frame6senderEP11RegisterMap.exit.i ]
  call void @llvm.lifetime.end.p0(i64 56, ptr nonnull %2)
  %46 = trunc i8 %45 to i1
  br i1 %46, label %_ZN16StackFrameStream7is_doneEv.exit.thread, label %16, !llvm.loop !34

_ZN16StackFrameStream7is_doneEv.exit.thread:      ; preds = %_ZN16StackFrameStream4nextEv.exit, %6, %1
  ret void
}